; Function Attrs: mustprogress nofree norecurse nosync nounwind willreturn memory(read, inaccessiblemem: none) uwtable
define noundef signext range(i8 0, 2) i8 @_ZNK6icu_7710ICUService9isDefaultEv(ptr noundef nonnull readonly align 8 captures(none) dereferenceable(120) %0) unnamed_addr #13 align 2 {
  %2 = getelementptr inbounds nuw i8, ptr %0, i64 88
  %3 = load ptr, ptr %2, align 8, !tbaa !34
  %4 = icmp eq ptr %3, null
  br i1 %4, label %_ZNK6icu_7710ICUService14countFactoriesEv.exit, label %5

5:                                                ; preds = %1
  %6 = getelementptr inbounds nuw i8, ptr %3, i64 8
  %7 = load i32, ptr %6, align 8, !tbaa !40
  %8 = icmp eq i32 %7, 0
  %9 = zext i1 %8 to i8
  br label %_ZNK6icu_7710ICUService14countFactoriesEv.exit

_ZNK6icu_7710ICUService14countFactoriesEv.exit:   ; preds = %1, %5
  %10 = phi i8 [ %9, %5 ], [ 1, %1 ]
  ret i8 %10
}